target datalayout = "e-m:e-p270:32:32-p271:32:32-p272:64:64-i64:64-i128:128-f80:128-n8:16:32:64-S128"
target triple = "x86_64-pc-linux-gnu"

@.str = private unnamed_addr constant [33 x i8] c"../openssl/crypto/bio/bio_sock.c\00", align 1
@__func__.BIO_get_host_ip = private unnamed_addr constant [16 x i8] c"BIO_get_host_ip\00", align 1
@.str.1 = private unnamed_addr constant [6 x i8] c"host=\00", align 1

; Function Attrs: nounwind uwtable
define i32 @BIO_sock_init() #0 {
  ret i32 1
}

; Function Attrs: nounwind uwtable
define i32 @BIO_get_host_ip(ptr noundef %0, ptr noundef %1) #0 {
  %3 = alloca i32, align 4
  %4 = alloca ptr, align 8
  %5 = alloca ptr, align 8
  %6 = alloca ptr, align 8
  %7 = alloca i32, align 4
  %8 = alloca i32, align 4
  %9 = alloca i64, align 8
  store ptr %0, ptr %4, align 8, !tbaa !3
  store ptr %1, ptr %5, align 8, !tbaa !3
  call void @llvm.lifetime.start.p0(i64 8, ptr %6) #8
  store ptr null, ptr %6, align 8, !tbaa !8
  call void @llvm.lifetime.start.p0(i64 4, ptr %7) #8
  store i32 0, ptr %7, align 4, !tbaa !10
  %10 = call i32 @BIO_sock_init()
  %11 = icmp ne i32 %10, 1
  br i1 %11, label %12, label %13

12:                                               ; preds = %2
  store i32 0, ptr %3, align 4
  store i32 1, ptr %8, align 4
  br label %51

13:                                               ; preds = %2
  %14 = load ptr, ptr %4, align 8, !tbaa !3
  %15 = call i32 @BIO_lookup(ptr noundef %14, ptr noundef null, i32 noundef 0, i32 noundef 2, i32 noundef 1, ptr noundef %6)
  %16 = icmp ne i32 %15, 0
  br i1 %16, label %17, label %47

17:                                               ; preds = %13
  call void @llvm.lifetime.start.p0(i64 8, ptr %9) #8
  %18 = load ptr, ptr %6, align 8, !tbaa !8
  %19 = call i32 @BIO_ADDRINFO_family(ptr noundef %18)
  %20 = icmp ne i32 %19, 2
  br i1 %20, label %21, label %22

21:                                               ; preds = %17
  call void @ERR_new()
  call void @ERR_set_debug(ptr noundef @.str, i32 noundef 57, ptr noundef @__func__.BIO_get_host_ip)
  call void (i32, i32, ptr, ...) @ERR_set_error(i32 noundef 32, i32 noundef 107, ptr noundef null)
  br label %45

22:                                               ; preds = %17
  %23 = load ptr, ptr %6, align 8, !tbaa !8
  %24 = call ptr @BIO_ADDRINFO_address(ptr noundef %23)
  %25 = call i32 @BIO_ADDR_rawaddress(ptr noundef %24, ptr noundef null, ptr noundef %9)
  %26 = icmp ne i32 %25, 0
  br i1 %26, label %27, label %44

27:                                               ; preds = %22
  %28 = load i64, ptr %9, align 8, !tbaa !12
  %29 = icmp eq i64 %28, 4
  %30 = zext i1 %29 to i32
  %31 = icmp ne i32 %30, 0
  %32 = xor i1 %31, true
  %33 = xor i1 %32, true
  %34 = zext i1 %33 to i32
  %35 = sext i32 %34 to i64
  %36 = call i64 @llvm.expect.i64(i64 %35, i64 1)
  %37 = icmp ne i64 %36, 0
  br i1 %37, label %38, label %43

38:                                               ; preds = %27
  %39 = load ptr, ptr %6, align 8, !tbaa !8
  %40 = call ptr @BIO_ADDRINFO_address(ptr noundef %39)
  %41 = load ptr, ptr %5, align 8, !tbaa !3
  %42 = call i32 @BIO_ADDR_rawaddress(ptr noundef %40, ptr noundef %41, ptr noundef %9)
  store i32 %42, ptr %7, align 4, !tbaa !10
  br label %43

43:                                               ; preds = %38, %27
  br label %44

44:                                               ; preds = %43, %22
  br label %45

45:                                               ; preds = %44, %21
  %46 = load ptr, ptr %6, align 8, !tbaa !8
  call void @BIO_ADDRINFO_free(ptr noundef %46)
  call void @llvm.lifetime.end.p0(i64 8, ptr %9) #8
  br label %49

47:                                               ; preds = %13
  %48 = load ptr, ptr %4, align 8, !tbaa !3
  call void (i32, ...) @ERR_add_error_data(i32 noundef 2, ptr noundef @.str.1, ptr noundef %48)
  br label %49

49:                                               ; preds = %47, %45
  %50 = load i32, ptr %7, align 4, !tbaa !10
  store i32 %50, ptr %3, align 4
  store i32 1, ptr %8, align 4
  br label %51

51:                                               ; preds = %49, %12
  call void @llvm.lifetime.end.p0(i64 4, ptr %7) #8
  call void @llvm.lifetime.end.p0(i64 8, ptr %6) #8
  %52 = load i32, ptr %3, align 4
  ret i32 %52
}