; Function Attrs: nounwind uwtable
define i32 @BIO_get_host_ip(ptr noundef %0, ptr noundef %1) local_unnamed_addr #0 {
  %3 = alloca ptr, align 8
  %4 = alloca i64, align 8
  call void @llvm.lifetime.start.p0(i64 8, ptr nonnull %3) #9
  store ptr null, ptr %3, align 8, !tbaa !3
  %5 = call i32 @BIO_lookup(ptr noundef %0, ptr noundef null, i32 noundef 0, i32 noundef 2, i32 noundef 1, ptr noundef nonnull %3) #9
  %.not = icmp eq i32 %5, 0
  br i1 %.not, label %22, label %6

6:                                                ; preds = %2
  call void @llvm.lifetime.start.p0(i64 8, ptr nonnull %4) #9
  %7 = load ptr, ptr %3, align 8, !tbaa !3
  %8 = call i32 @BIO_ADDRINFO_family(ptr noundef %7) #9
  %.not5 = icmp eq i32 %8, 2
  br i1 %.not5, label %10, label %9

9:                                                ; preds = %6
  call void @ERR_new() #9
  call void @ERR_set_debug(ptr noundef nonnull @.str, i32 noundef 57, ptr noundef nonnull @__func__.BIO_get_host_ip) #9
  call void (i32, i32, ptr, ...) @ERR_set_error(i32 noundef 32, i32 noundef 107, ptr noundef null) #9
  br label %20

10:                                               ; preds = %6
  %11 = load ptr, ptr %3, align 8, !tbaa !3
  %12 = call ptr @BIO_ADDRINFO_address(ptr noundef %11) #9
  %13 = call i32 @BIO_ADDR_rawaddress(ptr noundef %12, ptr noundef null, ptr noundef nonnull %4) #9
  %.not6 = icmp ne i32 %13, 0
  %14 = load i64, ptr %4, align 8
  %15 = icmp eq i64 %14, 4
  %or.cond = select i1 %.not6, i1 %15, i1 false
  br i1 %or.cond, label %16, label %20, !prof !8

16:                                               ; preds = %10
  %17 = load ptr, ptr %3, align 8, !tbaa !3
  %18 = call ptr @BIO_ADDRINFO_address(ptr noundef %17) #9
  %19 = call i32 @BIO_ADDR_rawaddress(ptr noundef %18, ptr noundef %1, ptr noundef nonnull %4) #9
  br label %20

20:                                               ; preds = %10, %16, %9
  %.0 = phi i32 [ 0, %9 ], [ %19, %16 ], [ 0, %10 ]
  %21 = load ptr, ptr %3, align 8, !tbaa !3
  call void @BIO_ADDRINFO_free(ptr noundef %21) #9
  call void @llvm.lifetime.end.p0(i64 8, ptr nonnull %4) #9
  br label %23

22:                                               ; preds = %2
  call void (i32, ...) @ERR_add_error_data(i32 noundef 2, ptr noundef nonnull @.str.1, ptr noundef %0) #9
  br label %23

23:                                               ; preds = %20, %22
  %.1 = phi i32 [ %.0, %20 ], [ 0, %22 ]
  call void @llvm.lifetime.end.p0(i64 8, ptr nonnull %3) #9
  ret i32 %.1
}